; ModuleID = 'source-C-CXX/34/2125.c'
source_filename = "source-C-CXX/34/2125.c"
target datalayout = "e-m:e-p270:32:32-p271:32:32-p272:64:64-i64:64-f80:128-n8:16:32:64-S128"
target triple = "x86_64-pc-linux-gnu"

@.str = private unnamed_addr constant [6 x i8] c"%d,%d\00", align 1
@.str.1 = private unnamed_addr constant [3 x i8] c"%d\00", align 1
@.str.2 = private unnamed_addr constant [6 x i8] c"%d+%d\00", align 1
@.str.3 = private unnamed_addr constant [3 x i8] c"No\00", align 1

; Function Attrs: nofree nounwind sspstrong uwtable
define dso_local i32 @main() local_unnamed_addr #0 {
  %1 = alloca i32, align 4
  %2 = alloca i32, align 4
  %3 = alloca [8 x [8 x i32]], align 16
  %4 = bitcast i32* %1 to i8*
  call void @llvm.lifetime.start.p0i8(i64 4, i8* nonnull %4) #3
  %5 = bitcast i32* %2 to i8*
  call void @llvm.lifetime.start.p0i8(i64 4, i8* nonnull %5) #3
  %6 = bitcast [8 x [8 x i32]]* %3 to i8*
  call void @llvm.lifetime.start.p0i8(i64 256, i8* nonnull %6) #3
  %7 = call i32 (i8*, ...) @__isoc99_scanf(i8* getelementptr inbounds ([6 x i8], [6 x i8]* @.str, i64 0, i64 0), i32* nonnull %1, i32* nonnull %2)
  %8 = load i32, i32* %1, align 4, !tbaa !5
  %9 = icmp sgt i32 %8, 0
  %10 = load i32, i32* %2, align 4
  %11 = icmp sgt i32 %10, 0
  %12 = select i1 %9, i1 %11, i1 false
  br i1 %12, label %13, label %97

13:                                               ; preds = %0, %33
  %14 = phi i32 [ %34, %33 ], [ %8, %0 ]
  %15 = phi i32 [ %35, %33 ], [ %10, %0 ]
  %16 = phi i64 [ %36, %33 ], [ 0, %0 ]
  %17 = icmp sgt i32 %15, 0
  br i1 %17, label %23, label %33

18:                                               ; preds = %33
  %19 = icmp sgt i32 %34, 0
  %20 = load i32, i32* %2, align 4
  %21 = icmp sgt i32 %20, 0
  %22 = select i1 %19, i1 %21, i1 false
  br i1 %22, label %39, label %97

23:                                               ; preds = %13, %23
  %24 = phi i64 [ %27, %23 ], [ 0, %13 ]
  %25 = getelementptr inbounds [8 x [8 x i32]], [8 x [8 x i32]]* %3, i64 0, i64 %16, i64 %24
  %26 = call i32 (i8*, ...) @__isoc99_scanf(i8* getelementptr inbounds ([3 x i8], [3 x i8]* @.str.1, i64 0, i64 0), i32* nonnull %25)
  %27 = add nuw nsw i64 %24, 1
  %28 = load i32, i32* %2, align 4, !tbaa !5
  %29 = sext i32 %28 to i64
  %30 = icmp slt i64 %27, %29
  br i1 %30, label %23, label %31, !llvm.loop !9

31:                                               ; preds = %23
  %32 = load i32, i32* %1, align 4, !tbaa !5
  br label %33

33:                                               ; preds = %31, %13
  %34 = phi i32 [ %32, %31 ], [ %14, %13 ]
  %35 = phi i32 [ %28, %31 ], [ %15, %13 ]
  %36 = add nuw nsw i64 %16, 1
  %37 = sext i32 %34 to i64
  %38 = icmp slt i64 %36, %37
  br i1 %38, label %13, label %18, !llvm.loop !11

39:                                               ; preds = %18, %95
  %40 = phi i32 [ %91, %95 ], [ %34, %18 ]
  %41 = phi i32 [ %96, %95 ], [ %20, %18 ]
  %42 = phi i64 [ %92, %95 ], [ 0, %18 ]
  %43 = icmp sgt i32 %41, 0
  %44 = icmp sgt i32 %40, 0
  %45 = select i1 %43, i1 %44, i1 false
  br i1 %45, label %46, label %90

46:                                               ; preds = %39
  %47 = add nsw i32 %40, -1
  %48 = add nsw i32 %41, -1
  %49 = zext i32 %47 to i64
  %50 = zext i32 %48 to i64
  %51 = zext i32 %41 to i64
  %52 = zext i32 %41 to i64
  br label %53

53:                                               ; preds = %46, %59
  %54 = phi i64 [ 0, %46 ], [ %60, %59 ]
  %55 = phi i1 [ true, %46 ], [ %61, %59 ]
  %56 = getelementptr inbounds [8 x [8 x i32]], [8 x [8 x i32]]* %3, i64 0, i64 %42, i64 %54
  %57 = load i32, i32* %56, align 4, !tbaa !5
  %58 = getelementptr inbounds [8 x [8 x i32]], [8 x [8 x i32]]* %3, i64 0, i64 0, i64 %54
  br label %63

59:                                               ; preds = %81, %63
  %60 = add nuw nsw i64 %54, 1
  %61 = icmp ult i64 %60, %51
  %62 = icmp eq i64 %60, %52
  br i1 %62, label %90, label %53, !llvm.loop !13

63:                                               ; preds = %81, %53
  %64 = phi i64 [ %82, %81 ], [ 0, %53 ]
  %65 = getelementptr inbounds [8 x [8 x i32]], [8 x [8 x i32]]* %3, i64 0, i64 %42, i64 %64
  %66 = load i32, i32* %65, align 4, !tbaa !5
  %67 = icmp slt i32 %57, %66
  br i1 %67, label %59, label %68

68:                                               ; preds = %63
  %69 = icmp eq i64 %64, %50
  br i1 %69, label %70, label %81

70:                                               ; preds = %68
  %71 = load i32, i32* %58, align 4, !tbaa !5
  %72 = icmp sgt i32 %57, %71
  br i1 %72, label %81, label %77

73:                                               ; preds = %77
  %74 = getelementptr inbounds [8 x [8 x i32]], [8 x [8 x i32]]* %3, i64 0, i64 %80, i64 %54
  %75 = load i32, i32* %74, align 4, !tbaa !5
  %76 = icmp sgt i32 %57, %75
  br i1 %76, label %81, label %77, !llvm.loop !14

77:                                               ; preds = %70, %73
  %78 = phi i64 [ %80, %73 ], [ 0, %70 ]
  %79 = icmp eq i64 %78, %49
  %80 = add nuw nsw i64 %78, 1
  br i1 %79, label %84, label %73

81:                                               ; preds = %73, %70, %68
  %82 = add nuw nsw i64 %64, 1
  %83 = icmp eq i64 %82, %52
  br i1 %83, label %59, label %63, !llvm.loop !15

84:                                               ; preds = %77
  %85 = trunc i64 %54 to i32
  %86 = trunc i64 %42 to i32
  %87 = call i32 (i8*, ...) @printf(i8* nonnull dereferenceable(1) getelementptr inbounds ([6 x i8], [6 x i8]* @.str.2, i64 0, i64 0), i32 %86, i32 %85)
  br i1 %55, label %99, label %88

88:                                               ; preds = %84
  %89 = load i32, i32* %1, align 4, !tbaa !5
  br label %90

90:                                               ; preds = %59, %88, %39
  %91 = phi i32 [ %89, %88 ], [ %40, %39 ], [ %40, %59 ]
  %92 = add nuw nsw i64 %42, 1
  %93 = sext i32 %91 to i64
  %94 = icmp slt i64 %92, %93
  br i1 %94, label %95, label %97, !llvm.loop !16

95:                                               ; preds = %90
  %96 = load i32, i32* %2, align 4, !tbaa !5
  br label %39

97:                                               ; preds = %90, %0, %18
  %98 = call i32 (i8*, ...) @printf(i8* nonnull dereferenceable(1) getelementptr inbounds ([3 x i8], [3 x i8]* @.str.3, i64 0, i64 0))
  br label %99

99:                                               ; preds = %84, %97
  call void @llvm.lifetime.end.p0i8(i64 256, i8* nonnull %6) #3
  call void @llvm.lifetime.end.p0i8(i64 4, i8* nonnull %5) #3
  call void @llvm.lifetime.end.p0i8(i64 4, i8* nonnull %4) #3
  ret i32 0
}

; Function Attrs: argmemonly mustprogress nofree nosync nounwind willreturn
declare void @llvm.lifetime.start.p0i8(i64 immarg, i8* nocapture) #1

; Function Attrs: nofree nounwind
declare noundef i32 @__isoc99_scanf(i8* nocapture noundef readonly, ...) local_unnamed_addr #2

; Function Attrs: nofree nounwind
declare noundef i32 @printf(i8* nocapture noundef readonly, ...) local_unnamed_addr #2

; Function Attrs: argmemonly mustprogress nofree nosync nounwind willreturn
declare void @llvm.lifetime.end.p0i8(i64 immarg, i8* nocapture) #1


!llvm.module.flags = !{!0, !1, !2, !3}
!llvm.ident = !{!4}

!0 = !{i32 1, !"wchar_size", i32 4}
!1 = !{i32 7, !"PIC Level", i32 2}
!2 = !{i32 7, !"PIE Level", i32 2}
!3 = !{i32 7, !"uwtable", i32 1}
!4 = !{!"clang version 13.0.0"}
!5 = !{!6, !6, i64 0}
!6 = !{!"int", !7, i64 0}
!7 = !{!"omnipotent char", !8, i64 0}
!8 = !{!"Simple C/C++ TBAA"}
!9 = distinct !{!9, !10}
!10 = !{!"llvm.loop.mustprogress"}
!11 = distinct !{!11, !10, !12}
!12 = !{!"llvm.loop.unswitch.partial.disable"}
!13 = distinct !{!13, !10}
!14 = distinct !{!14, !10}
!15 = distinct !{!15, !10}
!16 = distinct !{!16, !10, !12}
